target datalayout = "e-m:e-p270:32:32-p271:32:32-p272:64:64-i64:64-i128:128-f80:128-n8:16:32:64-S128"
target triple = "x86_64-unknown-linux-gnu"

%"class.datalog::mk_unfold" = type { %"class.datalog::rule_transformer::plugin", ptr, ptr, ptr, %"class.datalog::rule_unifier" }
%"class.datalog::rule_transformer::plugin" = type { ptr, i32, i8, ptr }
%"class.datalog::rule_unifier" = type <{ ptr, ptr, ptr, %"class.datalog::mk_interp_tail_simplifier", %class.substitution, %class.unifier, i8, i8, [2 x i8], [2 x i32], [4 x i8] }>
%"class.datalog::mk_interp_tail_simplifier" = type { %"class.datalog::rule_transformer::plugin", ptr, ptr, ptr, %class.arith_util, %"class.datalog::mk_interp_tail_simplifier::rule_substitution", %class.ptr_vector, %class.obj_hashtable, %class.ref_vector.19, %class.ref_vector, %class.ref_vector, %class.svector.24, ptr, ptr }
%class.arith_util = type { ptr, ptr }
%"class.datalog::mk_interp_tail_simplifier::rule_substitution" = type { ptr, ptr, %class.substitution, %class.unifier, %class.obj_ref, %class.ref_vector.19, %class.svector.24, ptr }
%class.obj_ref = type { ptr, ptr }
%class.ptr_vector = type { %class.vector.2 }
%class.vector.2 = type { ptr }
%class.obj_hashtable = type { %class.core_hashtable.base, [4 x i8] }
%class.core_hashtable.base = type <{ ptr, i32, i32, i32 }>
%class.ref_vector.19 = type { %class.ref_vector_core.20 }
%class.ref_vector_core.20 = type { %class.ref_manager_wrapper.21, %class.ptr_vector.22 }
%class.ref_manager_wrapper.21 = type { ptr }
%class.ptr_vector.22 = type { %class.vector.23 }
%class.vector.23 = type { ptr }
%class.ref_vector = type { %class.ref_vector_core }
%class.ref_vector_core = type { %class.ref_manager_wrapper, %class.ptr_vector }
%class.ref_manager_wrapper = type { ptr }
%class.svector.24 = type { %class.vector.25 }
%class.vector.25 = type { ptr }
%class.substitution = type <{ ptr, %class.var_offset_map, %class.svector.0, %class.ref_vector, %class.svector.3, %class.svector.5, %class.expr_offset_map, %class.ref_vector, %class.expr_offset_map.8, i32, [4 x i8] }>
%class.var_offset_map = type <{ %class.svector, i32, i32, i32, [4 x i8] }>
%class.svector = type { %class.vector }
%class.vector = type { ptr }
%class.svector.0 = type { %class.vector.1 }
%class.vector.1 = type { ptr }
%class.svector.3 = type { %class.vector.4 }
%class.vector.4 = type { ptr }
%class.svector.5 = type { %class.vector.6 }
%class.vector.6 = type { ptr }
%class.expr_offset_map = type <{ %class.vector.7, i32, [4 x i8] }>
%class.vector.7 = type { ptr }
%class.expr_offset_map.8 = type <{ %class.vector.9, i32, [4 x i8] }>
%class.vector.9 = type { ptr }
%class.unifier = type <{ ptr, ptr, %class.svector.11, %class.expr_offset_map.13, %class.expr_offset_map.16, i8, [7 x i8] }>
%class.svector.11 = type { %class.vector.12 }
%class.vector.12 = type { ptr }
%class.expr_offset_map.13 = type <{ %class.vector.14, i32, [4 x i8] }>
%class.vector.14 = type { ptr }
%class.expr_offset_map.16 = type <{ %class.vector.17, i32, [4 x i8] }>
%class.vector.17 = type { ptr }
%class.obj_map.57 = type { %class.core_hashtable.58 }
%class.core_hashtable.58 = type <{ ptr, i32, i32, i32, [4 x i8] }>
%class.expr_sparse_mark = type { %class.obj_hashtable }
%class.ptr_vector.87 = type { %class.vector.88 }
%class.vector.88 = type { ptr }
%class.obj_hashtable.110 = type { %class.core_hashtable.base.114, [4 x i8] }
%class.core_hashtable.base.114 = type <{ ptr, i32, i32, i32 }>
%"class.datalog::rule_set" = type { ptr, ptr, %class.ref_vector.125, %class.obj_map.128, %"class.datalog::rule_dependencies", %class.scoped_ptr.138, %class.obj_hashtable.110, %class.obj_map.57, %class.obj_map.57, %class.ref_vector.139, %class.ptr_vector.87 }
%class.ref_vector.125 = type { %class.ref_vector_core.126 }
%class.ref_vector_core.126 = type { %class.ref_manager_wrapper.127, %class.ptr_vector.87 }
%class.ref_manager_wrapper.127 = type { ptr }
%class.obj_map.128 = type { %class.core_hashtable.129 }
%class.core_hashtable.129 = type <{ ptr, i32, i32, i32, [4 x i8] }>
%"class.datalog::rule_dependencies" = type { %class.obj_map.133, ptr, %class.ptr_vector, %class.expr_sparse_mark, %class.obj_hashtable.110 }
%class.obj_map.133 = type { %class.core_hashtable.134 }
%class.core_hashtable.134 = type <{ ptr, i32, i32, i32, [4 x i8] }>
%class.scoped_ptr.138 = type { ptr }
%class.ref_vector.139 = type { %class.ref_vector_core.140 }
%class.ref_vector_core.140 = type { %class.ref_manager_wrapper.141, %class.ptr_vector.142 }
%class.ref_manager_wrapper.141 = type { ptr }
%class.ptr_vector.142 = type { %class.vector.143 }
%class.vector.143 = type { ptr }
%class.scoped_ptr.177 = type { ptr }

; Function Attrs: mustprogress nounwind uwtable
define linkonce_odr hidden noundef i32 @_ZNK6vectorIPN7datalog4ruleELb0EjE4sizeEv(ptr noundef nonnull align 8 dereferenceable(8) %this) #5 comdat align 2 {
entry:
  %retval = alloca i32, align 4
  %this.addr = alloca ptr, align 8
  store ptr %this, ptr %this.addr, align 8
  %this1 = load ptr, ptr %this.addr, align 8
  %m_data = getelementptr inbounds %class.vector.88, ptr %this1, i32 0, i32 0
  %0 = load ptr, ptr %m_data, align 8
  %cmp = icmp eq ptr %0, null
  br i1 %cmp, label %if.then, label %if.end

if.then:                                          ; preds = %entry
  store i32 0, ptr %retval, align 4
  br label %return

if.end:                                           ; preds = %entry
  %m_data2 = getelementptr inbounds %class.vector.88, ptr %this1, i32 0, i32 0
  %1 = load ptr, ptr %m_data2, align 8
  %arrayidx = getelementptr inbounds i32, ptr %1, i64 -1
  %2 = load i32, ptr %arrayidx, align 4
  store i32 %2, ptr %retval, align 4
  br label %return

return:                                           ; preds = %if.end, %if.then
  %3 = load i32, ptr %retval, align 4
  ret i32 %3
}

; Function Attrs: mustprogress nounwind uwtable
define linkonce_odr hidden noundef ptr @_ZNK6vectorIPN7datalog4ruleELb0EjE4dataEv(ptr noundef nonnull align 8 dereferenceable(8) %this) #5 comdat align 2 {
entry:
  %this.addr = alloca ptr, align 8
  store ptr %this, ptr %this.addr, align 8
  %this1 = load ptr, ptr %this.addr, align 8
  %m_data = getelementptr inbounds %class.vector.88, ptr %this1, i32 0, i32 0
  %0 = load ptr, ptr %m_data, align 8
  ret ptr %0
}

; Function Attrs: mustprogress uwtable
define linkonce_odr hidden noundef i32 @_ZNK15ref_vector_coreIN7datalog4ruleE19ref_manager_wrapperIS1_NS0_12rule_managerEEE4sizeEv(ptr noundef nonnull align 8 dereferenceable(16) %this) #4 comdat align 2 {
entry:
  %this.addr = alloca ptr, align 8
  store ptr %this, ptr %this.addr, align 8
  %this1 = load ptr, ptr %this.addr, align 8
  %m_nodes = getelementptr inbounds %class.ref_vector_core.126, ptr %this1, i32 0, i32 1
  %call = call noundef i32 @_ZNK6vectorIPN7datalog4ruleELb0EjE4sizeEv(ptr noundef nonnull align 8 dereferenceable(8) %m_nodes)
  ret i32 %call
}

; Function Attrs: mustprogress uwtable
define linkonce_odr hidden noundef ptr @_ZNK15ref_vector_coreIN7datalog4ruleE19ref_manager_wrapperIS1_NS0_12rule_managerEEE4dataEv(ptr noundef nonnull align 8 dereferenceable(16) %this) #4 comdat align 2 {
entry:
  %this.addr = alloca ptr, align 8
  store ptr %this, ptr %this.addr, align 8
  %this1 = load ptr, ptr %this.addr, align 8
  %m_nodes = getelementptr inbounds %class.ref_vector_core.126, ptr %this1, i32 0, i32 1
  %call = call noundef ptr @_ZNK6vectorIPN7datalog4ruleELb0EjE4dataEv(ptr noundef nonnull align 8 dereferenceable(8) %m_nodes)
  ret ptr %call
}

; Function Attrs: mustprogress nounwind uwtable
define linkonce_odr hidden noundef ptr @_ZN10scoped_ptrIN7datalog8rule_setEE6detachEv(ptr noundef nonnull align 8 dereferenceable(8) %this) #5 comdat align 2 {
entry:
  %this.addr = alloca ptr, align 8
  %tmp = alloca ptr, align 8
  store ptr %this, ptr %this.addr, align 8
  %this1 = load ptr, ptr %this.addr, align 8
  %m_ptr = getelementptr inbounds %class.scoped_ptr.177, ptr %this1, i32 0, i32 0
  %0 = load ptr, ptr %m_ptr, align 8
  store ptr %0, ptr %tmp, align 8
  %m_ptr2 = getelementptr inbounds %class.scoped_ptr.177, ptr %this1, i32 0, i32 0
  store ptr null, ptr %m_ptr2, align 8
  %1 = load ptr, ptr %tmp, align 8
  ret ptr %1
}

; Function Attrs: mustprogress nounwind uwtable
define linkonce_odr hidden noundef ptr @_ZNK10scoped_ptrIN7datalog8rule_setEEptEv(ptr noundef nonnull align 8 dereferenceable(8) %this) #5 comdat align 2 {
entry:
  %this.addr = alloca ptr, align 8
  store ptr %this, ptr %this.addr, align 8
  %this1 = load ptr, ptr %this.addr, align 8
  %m_ptr = getelementptr inbounds %class.scoped_ptr.177, ptr %this1, i32 0, i32 0
  %0 = load ptr, ptr %m_ptr, align 8
  ret ptr %0
}

; Function Attrs: mustprogress nounwind uwtable
define linkonce_odr hidden noundef nonnull align 8 dereferenceable(248) ptr @_ZN10scoped_ptrIN7datalog8rule_setEEdeEv(ptr noundef nonnull align 8 dereferenceable(8) %this) #5 comdat align 2 {
entry:
  %this.addr = alloca ptr, align 8
  store ptr %this, ptr %this.addr, align 8
  %this1 = load ptr, ptr %this.addr, align 8
  %m_ptr = getelementptr inbounds %class.scoped_ptr.177, ptr %this1, i32 0, i32 0
  %0 = load ptr, ptr %m_ptr, align 8
  ret ptr %0
}

; Function Attrs: mustprogress uwtable
define linkonce_odr hidden noundef ptr @_ZNK7datalog8rule_set3endEv(ptr noundef nonnull align 8 dereferenceable(248) %this) #4 comdat align 2 {
entry:
  %this.addr = alloca ptr, align 8
  store ptr %this, ptr %this.addr, align 8
  %this1 = load ptr, ptr %this.addr, align 8
  %m_rules = getelementptr inbounds %"class.datalog::rule_set", ptr %this1, i32 0, i32 2
  %call = call noundef ptr @_ZNK15ref_vector_coreIN7datalog4ruleE19ref_manager_wrapperIS1_NS0_12rule_managerEEE4dataEv(ptr noundef nonnull align 8 dereferenceable(16) %m_rules)
  %m_rules2 = getelementptr inbounds %"class.datalog::rule_set", ptr %this1, i32 0, i32 2
  %call3 = call noundef i32 @_ZNK15ref_vector_coreIN7datalog4ruleE19ref_manager_wrapperIS1_NS0_12rule_managerEEE4sizeEv(ptr noundef nonnull align 8 dereferenceable(16) %m_rules2)
  %idx.ext = zext i32 %call3 to i64
  %add.ptr = getelementptr inbounds ptr, ptr %call, i64 %idx.ext
  ret ptr %add.ptr
}

; Function Attrs: mustprogress uwtable
define linkonce_odr hidden noundef ptr @_ZNK7datalog8rule_set5beginEv(ptr noundef nonnull align 8 dereferenceable(248) %this) #4 comdat align 2 {
entry:
  %this.addr = alloca ptr, align 8
  store ptr %this, ptr %this.addr, align 8
  %this1 = load ptr, ptr %this.addr, align 8
  %m_rules = getelementptr inbounds %"class.datalog::rule_set", ptr %this1, i32 0, i32 2
  %call = call noundef ptr @_ZNK15ref_vector_coreIN7datalog4ruleE19ref_manager_wrapperIS1_NS0_12rule_managerEEE4dataEv(ptr noundef nonnull align 8 dereferenceable(16) %m_rules)
  ret ptr %call
}

; Function Attrs: mustprogress nounwind uwtable
define linkonce_odr hidden void @_ZN10scoped_ptrIN7datalog8rule_setEEC2EPS1_(ptr noundef nonnull align 8 dereferenceable(8) %this, ptr noundef %ptr) unnamed_addr #5 comdat align 2 {
entry:
  %this.addr = alloca ptr, align 8
  %ptr.addr = alloca ptr, align 8
  store ptr %this, ptr %this.addr, align 8
  store ptr %ptr, ptr %ptr.addr, align 8
  %this1 = load ptr, ptr %this.addr, align 8
  %m_ptr = getelementptr inbounds %class.scoped_ptr.177, ptr %this1, i32 0, i32 0
  %0 = load ptr, ptr %ptr.addr, align 8
  store ptr %0, ptr %m_ptr, align 8
  ret void
}

; Function Attrs: mustprogress uwtable
define hidden noundef ptr @_ZN7datalog9mk_unfoldclERKNS_8rule_setE(ptr noundef nonnull align 8 dereferenceable(704) %this, ptr noundef nonnull align 8 dereferenceable(248) %source) unnamed_addr #4 align 2 personality ptr @__gxx_personality_v0 {
entry:
  %this.addr = alloca ptr, align 8
  %source.addr = alloca ptr, align 8
  %rules = alloca %class.scoped_ptr.177, align 8
  %__range1 = alloca ptr, align 8
  %__begin1 = alloca ptr, align 8
  %exn.slot = alloca ptr, align 8
  %ehselector.slot = alloca i32, align 4
  %__end1 = alloca ptr, align 8
  %r = alloca ptr, align 8
  store ptr %this, ptr %this.addr, align 8
  store ptr %source, ptr %source.addr, align 8
  %this1 = load ptr, ptr %this.addr, align 8
  %call = call noalias noundef ptr @_ZN6memory8allocateEm(i64 noundef 248)
  %m_ctx = getelementptr inbounds %"class.datalog::mk_unfold", ptr %this1, i32 0, i32 1
  %0 = load ptr, ptr %m_ctx, align 8
  call void @_ZN7datalog8rule_setC1ERNS_7contextE(ptr noundef nonnull align 8 dereferenceable(248) %call, ptr noundef nonnull align 8 dereferenceable(3556) %0)
  call void @_ZN10scoped_ptrIN7datalog8rule_setEEC2EPS1_(ptr noundef nonnull align 8 dereferenceable(8) %rules, ptr noundef %call)
  %1 = load ptr, ptr %source.addr, align 8
  store ptr %1, ptr %__range1, align 8
  %2 = load ptr, ptr %__range1, align 8
  %call2 = invoke noundef ptr @_ZNK7datalog8rule_set5beginEv(ptr noundef nonnull align 8 dereferenceable(248) %2)
          to label %invoke.cont unwind label %lpad

invoke.cont:                                      ; preds = %entry
  store ptr %call2, ptr %__begin1, align 8
  %3 = load ptr, ptr %__range1, align 8
  %call4 = invoke noundef ptr @_ZNK7datalog8rule_set3endEv(ptr noundef nonnull align 8 dereferenceable(248) %3)
          to label %invoke.cont3 unwind label %lpad

invoke.cont3:                                     ; preds = %invoke.cont
  store ptr %call4, ptr %__end1, align 8
  br label %for.cond

for.cond:                                         ; preds = %for.inc, %invoke.cont3
  %4 = load ptr, ptr %__begin1, align 8
  %5 = load ptr, ptr %__end1, align 8
  %cmp = icmp ne ptr %4, %5
  br i1 %cmp, label %for.body, label %for.end

for.body:                                         ; preds = %for.cond
  %6 = load ptr, ptr %__begin1, align 8
  %7 = load ptr, ptr %6, align 8
  store ptr %7, ptr %r, align 8
  %8 = load ptr, ptr %r, align 8
  %9 = load ptr, ptr %source.addr, align 8
  %call6 = invoke noundef nonnull align 8 dereferenceable(248) ptr @_ZN10scoped_ptrIN7datalog8rule_setEEdeEv(ptr noundef nonnull align 8 dereferenceable(8) %rules)
          to label %invoke.cont5 unwind label %lpad

invoke.cont5:                                     ; preds = %for.body
  invoke void @_ZN7datalog9mk_unfold11expand_tailERNS_4ruleEjRKNS_8rule_setERS3_(ptr noundef nonnull align 8 dereferenceable(704) %this1, ptr noundef nonnull align 8 dereferenceable(80) %8, i32 noundef 0, ptr noundef nonnull align 8 dereferenceable(248) %9, ptr noundef nonnull align 8 dereferenceable(248) %call6)
          to label %invoke.cont7 unwind label %lpad

invoke.cont7:                                     ; preds = %invoke.cont5
  br label %for.inc

for.inc:                                          ; preds = %invoke.cont7
  %10 = load ptr, ptr %__begin1, align 8
  %incdec.ptr = getelementptr inbounds ptr, ptr %10, i32 1
  store ptr %incdec.ptr, ptr %__begin1, align 8
  br label %for.cond

lpad:                                             ; preds = %invoke.cont10, %invoke.cont8, %for.end, %invoke.cont5, %for.body, %invoke.cont, %entry
  %11 = landingpad { ptr, i32 }
          cleanup
  %12 = extractvalue { ptr, i32 } %11, 0
  store ptr %12, ptr %exn.slot, align 8
  %13 = extractvalue { ptr, i32 } %11, 1
  store i32 %13, ptr %ehselector.slot, align 4
  call void @_ZN10scoped_ptrIN7datalog8rule_setEED2Ev(ptr noundef nonnull align 8 dereferenceable(8) %rules) #3
  br label %eh.resume

for.end:                                          ; preds = %for.cond
  %call9 = invoke noundef ptr @_ZNK10scoped_ptrIN7datalog8rule_setEEptEv(ptr noundef nonnull align 8 dereferenceable(8) %rules)
          to label %invoke.cont8 unwind label %lpad

invoke.cont8:                                     ; preds = %for.end
  %14 = load ptr, ptr %source.addr, align 8
  invoke void @_ZN7datalog8rule_set18inherit_predicatesERKS0_(ptr noundef nonnull align 8 dereferenceable(248) %call9, ptr noundef nonnull align 8 dereferenceable(248) %14)
          to label %invoke.cont10 unwind label %lpad

invoke.cont10:                                    ; preds = %invoke.cont8
  %call12 = invoke noundef ptr @_ZN10scoped_ptrIN7datalog8rule_setEE6detachEv(ptr noundef nonnull align 8 dereferenceable(8) %rules)
          to label %invoke.cont11 unwind label %lpad

invoke.cont11:                                    ; preds = %invoke.cont10
  call void @_ZN10scoped_ptrIN7datalog8rule_setEED2Ev(ptr noundef nonnull align 8 dereferenceable(8) %rules) #3
  ret ptr %call12

eh.resume:                                        ; preds = %lpad
  %exn = load ptr, ptr %exn.slot, align 8
  %sel = load i32, ptr %ehselector.slot, align 4
  %lpad.val = insertvalue { ptr, i32 } poison, ptr %exn, 0
  %lpad.val13 = insertvalue { ptr, i32 } %lpad.val, i32 %sel, 1
  resume { ptr, i32 } %lpad.val13
}