; Function Attrs: mustprogress uwtable
define hidden noundef ptr @_ZN7datalog9mk_unfoldclERKNS_8rule_setE(ptr noundef nonnull align 8 dereferenceable(704) %this, ptr noundef nonnull align 8 dereferenceable(248) %source) unnamed_addr #3 align 2 personality ptr @__gxx_personality_v0 {
invoke.cont:
  %rules = alloca %class.scoped_ptr.177, align 8
  %call = tail call noalias noundef ptr @_ZN6memory8allocateEm(i64 noundef 248)
  %m_ctx = getelementptr inbounds i8, ptr %this, i64 24
  %0 = load ptr, ptr %m_ctx, align 8
  tail call void @_ZN7datalog8rule_setC1ERNS_7contextE(ptr noundef nonnull align 8 dereferenceable(248) %call, ptr noundef nonnull align 8 dereferenceable(3556) %0)
  store ptr %call, ptr %rules, align 8
  %m_nodes.i.i = getelementptr inbounds i8, ptr %source, i64 24
  %1 = load ptr, ptr %m_nodes.i.i, align 8
  %cmp.i.i.i = icmp eq ptr %1, null
  br i1 %cmp.i.i.i, label %for.end, label %_ZNK7datalog8rule_set3endEv.exit

_ZNK7datalog8rule_set3endEv.exit:                 ; preds = %invoke.cont
  %arrayidx.i.i.i = getelementptr inbounds i8, ptr %1, i64 -4
  %2 = load i32, ptr %arrayidx.i.i.i, align 4
  %3 = zext i32 %2 to i64
  %add.ptr.i = getelementptr inbounds ptr, ptr %1, i64 %3
  %cmp.not9 = icmp eq i32 %2, 0
  br i1 %cmp.not9, label %for.end, label %for.body

for.body:                                         ; preds = %_ZNK7datalog8rule_set3endEv.exit, %for.inc
  %__begin1.010 = phi ptr [ %incdec.ptr, %for.inc ], [ %1, %_ZNK7datalog8rule_set3endEv.exit ]
  %4 = load ptr, ptr %__begin1.010, align 8
  invoke void @_ZN7datalog9mk_unfold11expand_tailERNS_4ruleEjRKNS_8rule_setERS3_(ptr noundef nonnull align 8 dereferenceable(704) %this, ptr noundef nonnull align 8 dereferenceable(80) %4, i32 noundef 0, ptr noundef nonnull align 8 dereferenceable(248) %source, ptr noundef nonnull align 8 dereferenceable(248) %call)
          to label %for.inc unwind label %lpad.loopexit

for.inc:                                          ; preds = %for.body
  %incdec.ptr = getelementptr inbounds i8, ptr %__begin1.010, i64 8
  %cmp.not = icmp eq ptr %incdec.ptr, %add.ptr.i
  br i1 %cmp.not, label %for.end, label %for.body

lpad.loopexit:                                    ; preds = %for.body
  %lpad.loopexit7 = landingpad { ptr, i32 }
          cleanup
  br label %lpad

lpad.loopexit.split-lp:                           ; preds = %for.end
  %lpad.loopexit.split-lp8 = landingpad { ptr, i32 }
          cleanup
  br label %lpad

lpad:                                             ; preds = %lpad.loopexit.split-lp, %lpad.loopexit
  %lpad.phi = phi { ptr, i32 } [ %lpad.loopexit7, %lpad.loopexit ], [ %lpad.loopexit.split-lp8, %lpad.loopexit.split-lp ]
  call void @_ZN10scoped_ptrIN7datalog8rule_setEED2Ev(ptr noundef nonnull align 8 dereferenceable(8) %rules) #9
  resume { ptr, i32 } %lpad.phi

for.end:                                          ; preds = %for.inc, %invoke.cont, %_ZNK7datalog8rule_set3endEv.exit
  invoke void @_ZN7datalog8rule_set18inherit_predicatesERKS0_(ptr noundef nonnull align 8 dereferenceable(248) %call, ptr noundef nonnull align 8 dereferenceable(248) %source)
          to label %_ZN10scoped_ptrIN7datalog8rule_setEED2Ev.exit unwind label %lpad.loopexit.split-lp

_ZN10scoped_ptrIN7datalog8rule_setEED2Ev.exit:    ; preds = %for.end
  ret ptr %call
}